target datalayout = "e-m:e-p270:32:32-p271:32:32-p272:64:64-i64:64-i128:128-f80:128-n8:16:32:64-S128"
target triple = "x86_64-pc-linux-gnu"

; Function Attrs: nounwind uwtable
define dso_local i32 @OperatorLookup(ptr noundef %0, i32 noundef %1, i32 noundef %2, ptr noundef %3) #0 {
  %5 = alloca i32, align 4
  %6 = alloca ptr, align 8
  %7 = alloca i32, align 4
  %8 = alloca i32, align 4
  %9 = alloca ptr, align 8
  %10 = alloca i32, align 4
  %11 = alloca i32, align 4
  %12 = alloca i32, align 4
  store ptr %0, ptr %6, align 8
  store i32 %1, ptr %7, align 4
  store i32 %2, ptr %8, align 4
  store ptr %3, ptr %9, align 8
  call void @llvm.lifetime.start.p0(i64 4, ptr %10) #7
  call void @llvm.lifetime.start.p0(i64 4, ptr %11) #7
  %13 = load ptr, ptr %6, align 8
  %14 = load i32, ptr %7, align 4
  %15 = load i32, ptr %8, align 4
  %16 = call i32 @LookupOperName(ptr noundef null, ptr noundef %13, i32 noundef %14, i32 noundef %15, i1 noundef zeroext true, i32 noundef -1)
  store i32 %16, ptr %10, align 4
  %17 = load i32, ptr %10, align 4
  %18 = icmp ne i32 %17, 0
  br i1 %18, label %21, label %19

19:                                               ; preds = %4
  %20 = load ptr, ptr %9, align 8
  store i8 0, ptr %20, align 1
  store i32 0, ptr %5, align 4
  store i32 1, ptr %12, align 4
  br label %29

21:                                               ; preds = %4
  %22 = load i32, ptr %10, align 4
  %23 = call i32 @get_opcode(i32 noundef %22)
  store i32 %23, ptr %11, align 4
  %24 = load i32, ptr %11, align 4
  %25 = icmp ne i32 %24, 0
  %26 = load ptr, ptr %9, align 8
  %27 = zext i1 %25 to i8
  store i8 %27, ptr %26, align 1
  %28 = load i32, ptr %10, align 4
  store i32 %28, ptr %5, align 4
  store i32 1, ptr %12, align 4
  br label %29

29:                                               ; preds = %21, %19
  call void @llvm.lifetime.end.p0(i64 4, ptr %11) #7
  call void @llvm.lifetime.end.p0(i64 4, ptr %10) #7
  %30 = load i32, ptr %5, align 4
  ret i32 %30
}