; Function Attrs: nounwind uwtable
define dso_local i32 @OperatorLookup(ptr noundef %0, i32 noundef %1, i32 noundef %2, ptr noundef writeonly captures(none) initializes((0, 1)) %3) local_unnamed_addr #0 {
  %5 = tail call i32 @LookupOperName(ptr noundef null, ptr noundef %0, i32 noundef %1, i32 noundef %2, i1 noundef zeroext true, i32 noundef -1) #9
  %.not = icmp eq i32 %5, 0
  br i1 %.not, label %10, label %6

6:                                                ; preds = %4
  %7 = tail call i32 @get_opcode(i32 noundef %5) #9
  %8 = icmp ne i32 %7, 0
  %9 = zext i1 %8 to i8
  br label %10

10:                                               ; preds = %4, %6
  %storemerge = phi i8 [ %9, %6 ], [ 0, %4 ]
  store i8 %storemerge, ptr %3, align 1
  ret i32 %5
}